; Function Attrs: mustprogress nounwind uwtable
define hidden void @_ZNK24G1ConcurrentRefineThread13report_activeEPKc(ptr nocapture noundef nonnull readonly align 8 dereferenceable(1104) %0, ptr noundef %1) local_unnamed_addr #0 align 2 {
  %3 = load volatile ptr, ptr getelementptr inbounds (i8, ptr @_ZN16LogTagSetMappingILN6LogTag4typeE49ELS1_127ELS1_0ELS1_0ELS1_0ELS1_0EE7_tagsetE, i64 48), align 8
  %.not = icmp eq ptr %3, null
  br i1 %.not, label %10, label %4

4:                                                ; preds = %2
  %5 = getelementptr inbounds i8, ptr %0, i64 1088
  %6 = load i32, ptr %5, align 8
  %7 = load ptr, ptr @_ZN10BarrierSet12_barrier_setE, align 8
  %8 = getelementptr inbounds i8, ptr %7, i64 1664
  %9 = tail call noundef i64 @_ZNK19G1DirtyCardQueueSet9num_cardsEv(ptr noundef nonnull align 8 dereferenceable(928) %8) #9
  tail call void (ptr, ...) @_ZN7LogImplILN6LogTag4typeE49ELS1_127ELS1_0ELS1_0ELS1_0ELS1_0EE5writeILN8LogLevel4typeE1EEEvPKcz(ptr noundef nonnull @.str.9, ptr noundef %1, i32 noundef %6, i64 noundef %9)
  br label %10

10:                                               ; preds = %2, %4
  ret void
}